; ModuleID = 'source-C-CXX/53/1570.cpp'
source_filename = "source-C-CXX/53/1570.cpp"
target datalayout = "e-m:e-p270:32:32-p271:32:32-p272:64:64-i64:64-f80:128-n8:16:32:64-S128"
target triple = "x86_64-pc-linux-gnu"

%"class.std::ios_base::Init" = type { i8 }
%"class.std::basic_istream" = type { i32 (...)**, i64, %"class.std::basic_ios" }
%"class.std::basic_ios" = type { %"class.std::ios_base", %"class.std::basic_ostream"*, i8, i8, %"class.std::basic_streambuf"*, %"class.std::ctype"*, %"class.std::num_put"*, %"class.std::num_get"* }
%"class.std::ios_base" = type { i32 (...)**, i64, i64, i32, i32, i32, %"struct.std::ios_base::_Callback_list"*, %"struct.std::ios_base::_Words", [8 x %"struct.std::ios_base::_Words"], i32, %"struct.std::ios_base::_Words"*, %"class.std::locale" }
%"struct.std::ios_base::_Callback_list" = type { %"struct.std::ios_base::_Callback_list"*, void (i32, %"class.std::ios_base"*, i32)*, i32, i32 }
%"struct.std::ios_base::_Words" = type { i8*, i64 }
%"class.std::locale" = type { %"class.std::locale::_Impl"* }
%"class.std::locale::_Impl" = type { i32, %"class.std::locale::facet"**, i64, %"class.std::locale::facet"**, i8** }
%"class.std::locale::facet" = type <{ i32 (...)**, i32, [4 x i8] }>
%"class.std::basic_ostream" = type { i32 (...)**, %"class.std::basic_ios" }
%"class.std::basic_streambuf" = type { i32 (...)**, i8*, i8*, i8*, i8*, i8*, i8*, %"class.std::locale" }
%"class.std::ctype" = type <{ %"class.std::locale::facet.base", [4 x i8], %struct.__locale_struct*, i8, [7 x i8], i32*, i32*, i16*, i8, [256 x i8], [256 x i8], i8, [6 x i8] }>
%"class.std::locale::facet.base" = type <{ i32 (...)**, i32 }>
%struct.__locale_struct = type { [13 x %struct.__locale_data*], i16*, i32*, i32*, [13 x i8*] }
%struct.__locale_data = type opaque
%"class.std::num_put" = type { %"class.std::locale::facet.base", [4 x i8] }
%"class.std::num_get" = type { %"class.std::locale::facet.base", [4 x i8] }

@_ZStL8__ioinit = internal global %"class.std::ios_base::Init" zeroinitializer, align 1
@__dso_handle = external hidden global i8
@_ZSt3cin = external global %"class.std::basic_istream", align 8
@_ZSt4cout = external global %"class.std::basic_ostream", align 8
@llvm.global_ctors = appending global [1 x { i32, void ()*, i8* }] [{ i32, void ()*, i8* } { i32 65535, void ()* @_GLOBAL__sub_I_1570.cpp, i8* null }]

declare void @_ZNSt8ios_base4InitC1Ev(%"class.std::ios_base::Init"* nonnull align 1 dereferenceable(1)) unnamed_addr #0

; Function Attrs: nounwind
declare void @_ZNSt8ios_base4InitD1Ev(%"class.std::ios_base::Init"* nonnull align 1 dereferenceable(1)) unnamed_addr #1

; Function Attrs: nofree nounwind
declare i32 @__cxa_atexit(void (i8*)*, i8*, i8*) local_unnamed_addr #2

; Function Attrs: mustprogress norecurse sspstrong uwtable
define dso_local i32 @main() local_unnamed_addr #3 {
  %1 = alloca i32, align 4
  %2 = alloca i32, align 4
  %3 = alloca [1000 x i32], align 16
  %4 = bitcast i32* %1 to i8*
  call void @llvm.lifetime.start.p0i8(i64 4, i8* nonnull %4) #8
  %5 = bitcast i32* %2 to i8*
  call void @llvm.lifetime.start.p0i8(i64 4, i8* nonnull %5) #8
  %6 = bitcast [1000 x i32]* %3 to i8*
  call void @llvm.lifetime.start.p0i8(i64 4000, i8* nonnull %6) #8
  %7 = call nonnull align 8 dereferenceable(16) %"class.std::basic_istream"* @_ZNSirsERi(%"class.std::basic_istream"* nonnull align 8 dereferenceable(16) @_ZSt3cin, i32* nonnull align 4 dereferenceable(4) %1)
  %8 = call nonnull align 8 dereferenceable(16) %"class.std::basic_istream"* @_ZNSirsERi(%"class.std::basic_istream"* nonnull align 8 dereferenceable(16) %7, i32* nonnull align 4 dereferenceable(4) %2)
  %9 = load i32, i32* %2, align 4, !tbaa !5
  %10 = insertelement <4 x i32> poison, i32 %9, i32 0
  %11 = shufflevector <4 x i32> %10, <4 x i32> poison, <4 x i32> zeroinitializer
  %12 = insertelement <4 x i32> poison, i32 %9, i32 0
  %13 = shufflevector <4 x i32> %12, <4 x i32> poison, <4 x i32> zeroinitializer
  br label %14

14:                                               ; preds = %14, %0
  %15 = phi i64 [ 0, %0 ], [ %40, %14 ]
  %16 = getelementptr inbounds [1000 x i32], [1000 x i32]* %3, i64 0, i64 %15
  %17 = bitcast i32* %16 to <4 x i32>*
  store <4 x i32> %11, <4 x i32>* %17, align 16, !tbaa !5
  %18 = getelementptr inbounds i32, i32* %16, i64 4
  %19 = bitcast i32* %18 to <4 x i32>*
  store <4 x i32> %13, <4 x i32>* %19, align 16, !tbaa !5
  %20 = add nuw nsw i64 %15, 8
  %21 = getelementptr inbounds [1000 x i32], [1000 x i32]* %3, i64 0, i64 %20
  %22 = bitcast i32* %21 to <4 x i32>*
  store <4 x i32> %11, <4 x i32>* %22, align 16, !tbaa !5
  %23 = getelementptr inbounds i32, i32* %21, i64 4
  %24 = bitcast i32* %23 to <4 x i32>*
  store <4 x i32> %13, <4 x i32>* %24, align 16, !tbaa !5
  %25 = add nuw nsw i64 %15, 16
  %26 = getelementptr inbounds [1000 x i32], [1000 x i32]* %3, i64 0, i64 %25
  %27 = bitcast i32* %26 to <4 x i32>*
  store <4 x i32> %11, <4 x i32>* %27, align 16, !tbaa !5
  %28 = getelementptr inbounds i32, i32* %26, i64 4
  %29 = bitcast i32* %28 to <4 x i32>*
  store <4 x i32> %13, <4 x i32>* %29, align 16, !tbaa !5
  %30 = add nuw nsw i64 %15, 24
  %31 = getelementptr inbounds [1000 x i32], [1000 x i32]* %3, i64 0, i64 %30
  %32 = bitcast i32* %31 to <4 x i32>*
  store <4 x i32> %11, <4 x i32>* %32, align 16, !tbaa !5
  %33 = getelementptr inbounds i32, i32* %31, i64 4
  %34 = bitcast i32* %33 to <4 x i32>*
  store <4 x i32> %13, <4 x i32>* %34, align 16, !tbaa !5
  %35 = add nuw nsw i64 %15, 32
  %36 = getelementptr inbounds [1000 x i32], [1000 x i32]* %3, i64 0, i64 %35
  %37 = bitcast i32* %36 to <4 x i32>*
  store <4 x i32> %11, <4 x i32>* %37, align 16, !tbaa !5
  %38 = getelementptr inbounds i32, i32* %36, i64 4
  %39 = bitcast i32* %38 to <4 x i32>*
  store <4 x i32> %13, <4 x i32>* %39, align 16, !tbaa !5
  %40 = add nuw nsw i64 %15, 40
  %41 = icmp eq i64 %40, 1000
  br i1 %41, label %42, label %14, !llvm.loop !9

42:                                               ; preds = %14
  %43 = load i32, i32* %1, align 4, !tbaa !5
  %44 = sext i32 %43 to i64
  %45 = getelementptr inbounds [1000 x i32], [1000 x i32]* %3, i64 0, i64 %44
  %46 = add nsw i32 %43, -1
  %47 = icmp sgt i32 %43, 1
  %48 = load i32, i32* %45, align 4, !tbaa !5
  %49 = add nsw i32 %48, %43
  store i32 %49, i32* %45, align 4, !tbaa !5
  br i1 %47, label %50, label %71

50:                                               ; preds = %42
  %51 = zext i32 %43 to i64
  %52 = getelementptr inbounds [1000 x i32], [1000 x i32]* %3, i64 0, i64 %51
  br label %53

53:                                               ; preds = %50, %68
  %54 = load i32, i32* %52, align 4, !tbaa !5
  br label %55

55:                                               ; preds = %61, %53
  %56 = phi i32 [ %54, %53 ], [ %64, %61 ]
  %57 = phi i32 [ %43, %53 ], [ %58, %61 ]
  %58 = add nsw i32 %57, -1
  %59 = srem i32 %56, %46
  %60 = icmp eq i32 %59, 0
  br i1 %60, label %61, label %68

61:                                               ; preds = %55
  %62 = mul nsw i32 %56, %43
  %63 = sdiv i32 %62, %46
  %64 = add nsw i32 %9, %63
  %65 = zext i32 %58 to i64
  %66 = getelementptr inbounds [1000 x i32], [1000 x i32]* %3, i64 0, i64 %65
  store i32 %64, i32* %66, align 4, !tbaa !5
  %67 = icmp sgt i32 %57, 2
  br i1 %67, label %55, label %71, !llvm.loop !12

68:                                               ; preds = %55
  %69 = load i32, i32* %45, align 4, !tbaa !5
  %70 = add nsw i32 %69, %43
  store i32 %70, i32* %45, align 4, !tbaa !5
  br label %53

71:                                               ; preds = %61, %42
  %72 = icmp sgt i32 %43, 0
  br i1 %72, label %73, label %142

73:                                               ; preds = %71
  %74 = zext i32 %43 to i64
  %75 = icmp ult i32 %43, 8
  br i1 %75, label %139, label %76

76:                                               ; preds = %73
  %77 = and i64 %74, 4294967288
  %78 = add nsw i64 %77, -8
  %79 = lshr exact i64 %78, 3
  %80 = add nuw nsw i64 %79, 1
  %81 = and i64 %80, 1
  %82 = icmp eq i64 %78, 0
  br i1 %82, label %114, label %83

83:                                               ; preds = %76
  %84 = and i64 %80, 4611686018427387902
  br label %85

85:                                               ; preds = %85, %83
  %86 = phi i64 [ 0, %83 ], [ %111, %85 ]
  %87 = phi <4 x i32> [ zeroinitializer, %83 ], [ %109, %85 ]
  %88 = phi <4 x i32> [ zeroinitializer, %83 ], [ %110, %85 ]
  %89 = phi i64 [ %84, %83 ], [ %112, %85 ]
  %90 = getelementptr inbounds [1000 x i32], [1000 x i32]* %3, i64 0, i64 %86
  %91 = bitcast i32* %90 to <4 x i32>*
  %92 = load <4 x i32>, <4 x i32>* %91, align 16, !tbaa !5
  %93 = getelementptr inbounds i32, i32* %90, i64 4
  %94 = bitcast i32* %93 to <4 x i32>*
  %95 = load <4 x i32>, <4 x i32>* %94, align 16, !tbaa !5
  %96 = icmp sgt <4 x i32> %92, %87
  %97 = icmp sgt <4 x i32> %95, %88
  %98 = select <4 x i1> %96, <4 x i32> %92, <4 x i32> %87
  %99 = select <4 x i1> %97, <4 x i32> %95, <4 x i32> %88
  %100 = or i64 %86, 8
  %101 = getelementptr inbounds [1000 x i32], [1000 x i32]* %3, i64 0, i64 %100
  %102 = bitcast i32* %101 to <4 x i32>*
  %103 = load <4 x i32>, <4 x i32>* %102, align 16, !tbaa !5
  %104 = getelementptr inbounds i32, i32* %101, i64 4
  %105 = bitcast i32* %104 to <4 x i32>*
  %106 = load <4 x i32>, <4 x i32>* %105, align 16, !tbaa !5
  %107 = icmp sgt <4 x i32> %103, %98
  %108 = icmp sgt <4 x i32> %106, %99
  %109 = select <4 x i1> %107, <4 x i32> %103, <4 x i32> %98
  %110 = select <4 x i1> %108, <4 x i32> %106, <4 x i32> %99
  %111 = add nuw i64 %86, 16
  %112 = add i64 %89, -2
  %113 = icmp eq i64 %112, 0
  br i1 %113, label %114, label %85, !llvm.loop !13

114:                                              ; preds = %85, %76
  %115 = phi <4 x i32> [ undef, %76 ], [ %109, %85 ]
  %116 = phi <4 x i32> [ undef, %76 ], [ %110, %85 ]
  %117 = phi i64 [ 0, %76 ], [ %111, %85 ]
  %118 = phi <4 x i32> [ zeroinitializer, %76 ], [ %109, %85 ]
  %119 = phi <4 x i32> [ zeroinitializer, %76 ], [ %110, %85 ]
  %120 = icmp eq i64 %81, 0
  br i1 %120, label %132, label %121

121:                                              ; preds = %114
  %122 = getelementptr inbounds [1000 x i32], [1000 x i32]* %3, i64 0, i64 %117
  %123 = bitcast i32* %122 to <4 x i32>*
  %124 = load <4 x i32>, <4 x i32>* %123, align 16, !tbaa !5
  %125 = getelementptr inbounds i32, i32* %122, i64 4
  %126 = bitcast i32* %125 to <4 x i32>*
  %127 = load <4 x i32>, <4 x i32>* %126, align 16, !tbaa !5
  %128 = icmp sgt <4 x i32> %127, %119
  %129 = select <4 x i1> %128, <4 x i32> %127, <4 x i32> %119
  %130 = icmp sgt <4 x i32> %124, %118
  %131 = select <4 x i1> %130, <4 x i32> %124, <4 x i32> %118
  br label %132

132:                                              ; preds = %114, %121
  %133 = phi <4 x i32> [ %115, %114 ], [ %131, %121 ]
  %134 = phi <4 x i32> [ %116, %114 ], [ %129, %121 ]
  %135 = icmp sgt <4 x i32> %133, %134
  %136 = select <4 x i1> %135, <4 x i32> %133, <4 x i32> %134
  %137 = call i32 @llvm.vector.reduce.smax.v4i32(<4 x i32> %136)
  %138 = icmp eq i64 %77, %74
  br i1 %138, label %142, label %139

139:                                              ; preds = %73, %132
  %140 = phi i64 [ 0, %73 ], [ %77, %132 ]
  %141 = phi i32 [ 0, %73 ], [ %137, %132 ]
  br label %174

142:                                              ; preds = %174, %132, %71
  %143 = phi i32 [ 0, %71 ], [ %137, %132 ], [ %180, %174 ]
  %144 = call nonnull align 8 dereferenceable(8) %"class.std::basic_ostream"* @_ZNSolsEi(%"class.std::basic_ostream"* nonnull align 8 dereferenceable(8) @_ZSt4cout, i32 %143)
  %145 = bitcast %"class.std::basic_ostream"* %144 to i8**
  %146 = load i8*, i8** %145, align 8, !tbaa !14
  %147 = getelementptr i8, i8* %146, i64 -24
  %148 = bitcast i8* %147 to i64*
  %149 = load i64, i64* %148, align 8
  %150 = bitcast %"class.std::basic_ostream"* %144 to i8*
  %151 = add nsw i64 %149, 240
  %152 = getelementptr inbounds i8, i8* %150, i64 %151
  %153 = bitcast i8* %152 to %"class.std::ctype"**
  %154 = load %"class.std::ctype"*, %"class.std::ctype"** %153, align 8, !tbaa !16
  %155 = icmp eq %"class.std::ctype"* %154, null
  br i1 %155, label %156, label %157

156:                                              ; preds = %142
  call void @_ZSt16__throw_bad_castv() #9
  unreachable

157:                                              ; preds = %142
  %158 = getelementptr inbounds %"class.std::ctype", %"class.std::ctype"* %154, i64 0, i32 8
  %159 = load i8, i8* %158, align 8, !tbaa !20
  %160 = icmp eq i8 %159, 0
  br i1 %160, label %164, label %161

161:                                              ; preds = %157
  %162 = getelementptr inbounds %"class.std::ctype", %"class.std::ctype"* %154, i64 0, i32 9, i64 10
  %163 = load i8, i8* %162, align 1, !tbaa !22
  br label %170

164:                                              ; preds = %157
  call void @_ZNKSt5ctypeIcE13_M_widen_initEv(%"class.std::ctype"* nonnull align 8 dereferenceable(570) %154)
  %165 = bitcast %"class.std::ctype"* %154 to i8 (%"class.std::ctype"*, i8)***
  %166 = load i8 (%"class.std::ctype"*, i8)**, i8 (%"class.std::ctype"*, i8)*** %165, align 8, !tbaa !14
  %167 = getelementptr inbounds i8 (%"class.std::ctype"*, i8)*, i8 (%"class.std::ctype"*, i8)** %166, i64 6
  %168 = load i8 (%"class.std::ctype"*, i8)*, i8 (%"class.std::ctype"*, i8)** %167, align 8
  %169 = call signext i8 %168(%"class.std::ctype"* nonnull align 8 dereferenceable(570) %154, i8 signext 10)
  br label %170

170:                                              ; preds = %161, %164
  %171 = phi i8 [ %163, %161 ], [ %169, %164 ]
  %172 = call nonnull align 8 dereferenceable(8) %"class.std::basic_ostream"* @_ZNSo3putEc(%"class.std::basic_ostream"* nonnull align 8 dereferenceable(8) %144, i8 signext %171)
  %173 = call nonnull align 8 dereferenceable(8) %"class.std::basic_ostream"* @_ZNSo5flushEv(%"class.std::basic_ostream"* nonnull align 8 dereferenceable(8) %172)
  call void @llvm.lifetime.end.p0i8(i64 4000, i8* nonnull %6) #8
  call void @llvm.lifetime.end.p0i8(i64 4, i8* nonnull %5) #8
  call void @llvm.lifetime.end.p0i8(i64 4, i8* nonnull %4) #8
  ret i32 0

174:                                              ; preds = %139, %174
  %175 = phi i64 [ %181, %174 ], [ %140, %139 ]
  %176 = phi i32 [ %180, %174 ], [ %141, %139 ]
  %177 = getelementptr inbounds [1000 x i32], [1000 x i32]* %3, i64 0, i64 %175
  %178 = load i32, i32* %177, align 4, !tbaa !5
  %179 = icmp sgt i32 %178, %176
  %180 = select i1 %179, i32 %178, i32 %176
  %181 = add nuw nsw i64 %175, 1
  %182 = icmp eq i64 %181, %74
  br i1 %182, label %142, label %174, !llvm.loop !23
}

; Function Attrs: argmemonly mustprogress nofree nosync nounwind willreturn
declare void @llvm.lifetime.start.p0i8(i64 immarg, i8* nocapture) #4

declare nonnull align 8 dereferenceable(16) %"class.std::basic_istream"* @_ZNSirsERi(%"class.std::basic_istream"* nonnull align 8 dereferenceable(16), i32* nonnull align 4 dereferenceable(4)) local_unnamed_addr #0

; Function Attrs: argmemonly mustprogress nofree nosync nounwind willreturn
declare void @llvm.lifetime.end.p0i8(i64 immarg, i8* nocapture) #4

declare nonnull align 8 dereferenceable(8) %"class.std::basic_ostream"* @_ZNSolsEi(%"class.std::basic_ostream"* nonnull align 8 dereferenceable(8), i32) local_unnamed_addr #0

declare nonnull align 8 dereferenceable(8) %"class.std::basic_ostream"* @_ZNSo3putEc(%"class.std::basic_ostream"* nonnull align 8 dereferenceable(8), i8 signext) local_unnamed_addr #0

declare nonnull align 8 dereferenceable(8) %"class.std::basic_ostream"* @_ZNSo5flushEv(%"class.std::basic_ostream"* nonnull align 8 dereferenceable(8)) local_unnamed_addr #0

; Function Attrs: noreturn
declare void @_ZSt16__throw_bad_castv() local_unnamed_addr #5

declare void @_ZNKSt5ctypeIcE13_M_widen_initEv(%"class.std::ctype"* nonnull align 8 dereferenceable(570)) local_unnamed_addr #0

; Function Attrs: sspstrong uwtable
define internal void @_GLOBAL__sub_I_1570.cpp() #6 section ".text.startup" {
  tail call void @_ZNSt8ios_base4InitC1Ev(%"class.std::ios_base::Init"* nonnull align 1 dereferenceable(1) @_ZStL8__ioinit)
  %1 = tail call i32 @__cxa_atexit(void (i8*)* bitcast (void (%"class.std::ios_base::Init"*)* @_ZNSt8ios_base4InitD1Ev to void (i8*)*), i8* getelementptr inbounds (%"class.std::ios_base::Init", %"class.std::ios_base::Init"* @_ZStL8__ioinit, i64 0, i32 0), i8* nonnull @__dso_handle) #8
  ret void
}

; Function Attrs: nofree nosync nounwind readnone willreturn
declare i32 @llvm.vector.reduce.smax.v4i32(<4 x i32>) #7


!llvm.module.flags = !{!0, !1, !2, !3}
!llvm.ident = !{!4}

!0 = !{i32 1, !"wchar_size", i32 4}
!1 = !{i32 7, !"PIC Level", i32 2}
!2 = !{i32 7, !"PIE Level", i32 2}
!3 = !{i32 7, !"uwtable", i32 1}
!4 = !{!"clang version 13.0.0"}
!5 = !{!6, !6, i64 0}
!6 = !{!"int", !7, i64 0}
!7 = !{!"omnipotent char", !8, i64 0}
!8 = !{!"Simple C++ TBAA"}
!9 = distinct !{!9, !10, !11}
!10 = !{!"llvm.loop.mustprogress"}
!11 = !{!"llvm.loop.isvectorized", i32 1}
!12 = distinct !{!12, !10}
!13 = distinct !{!13, !10, !11}
!14 = !{!15, !15, i64 0}
!15 = !{!"vtable pointer", !8, i64 0}
!16 = !{!17, !18, i64 240}
!17 = !{!"_ZTSSt9basic_iosIcSt11char_traitsIcEE", !18, i64 216, !7, i64 224, !19, i64 225, !18, i64 232, !18, i64 240, !18, i64 248, !18, i64 256}
!18 = !{!"any pointer", !7, i64 0}
!19 = !{!"bool", !7, i64 0}
!20 = !{!21, !7, i64 56}
!21 = !{!"_ZTSSt5ctypeIcE", !18, i64 16, !19, i64 24, !18, i64 32, !18, i64 40, !18, i64 48, !7, i64 56, !7, i64 57, !7, i64 313, !7, i64 569}
!22 = !{!7, !7, i64 0}
!23 = distinct !{!23, !10, !24, !11}
!24 = !{!"llvm.loop.unroll.runtime.disable"}
